Certificate:
    Data:
        Version: 3 (0x2)
        Serial Number: 3 (0x3)
    Signature Algorithm: sha256WithRSAEncryption
        Issuer: CN=fair.lv
        Validity
            Not Before: May  7 20:53:03 2018 GMT
            Not After : May  4 20:53:03 2028 GMT
        Subject: CN=inspiron
        Subject Public Key Info:
            Public Key Algorithm: rsaEncryption
                Public-Key: (2048 bit)
                Modulus:
                    00:cb:b5:46:06:42:ae:99:3f:62:a6:15:22:e0:cd:
                    d9:42:90:fb:d9:37:a6:8b:d6:ee:60:3f:5e:6d:c8:
                    bb:50:24:f0:37:4c:80:89:47:53:62:4f:65:d3:b1:
                    76:b2:15:4f:49:9d:b1:98:09:30:8e:47:8b:6f:6d:
                    3f:aa:76:76:fc:b9:12:da:57:ae:10:a2:e0:61:8c:
                    72:b8:d2:00:34:94:1a:56:b4:c4:95:b0:22:a4:ec:
                    c5:03:ac:1a:03:f0:f2:da:87:72:9f:33:40:8c:ca:
                    f2:1a:66:11:63:47:a6:8d:69:53:ea:ac:6a:c8:80:
                    cc:0e:d6:7f:b1:b8:f0:48:7e:58:9d:5c:98:3c:0b:
                    fe:50:c6:cd:1f:50:f7:85:d8:24:c5:b2:2c:3f:4a:
                    e4:63:d9:5c:92:38:38:28:92:f3:f3:53:67:12:fd:
                    7c:42:e3:9c:2b:2e:f3:b7:c9:cb:34:07:45:73:65:
                    37:e6:0f:dd:75:d6:42:77:1e:86:26:30:c4:b4:34:
                    5d:f7:b9:2d:6b:ee:73:84:7a:97:5b:1b:7c:51:08:
                    1e:f1:1e:8a:9d:6b:d7:af:c4:ef:6d:40:aa:79:9a:
                    a7:97:c6:c4:69:bb:9e:4e:6c:0f:2d:08:e6:10:8d:
                    42:0a:6a:51:bf:a7:56:46:b3:13:80:06:6c:fa:9e:
                    1f:0b
                Exponent: 65537 (0x10001)
        X509v3 extensions:
            X509v3 Basic Constraints: 
                CA:FALSE
            X509v3 Subject Key Identifier: 
                EC:A8:06:24:FB:C6:DA:FD:FB:C0:A0:AC:13:36:E1:11:91:1E:36:D5
            X509v3 Authority Key Identifier: 
                keyid:79:28:48:E0:B0:60:B0:9C:1F:02:ED:3E:92:95:47:14:92:F3:DC:0C
                DirName:/CN=fair.lv
                serial:EE:2B:E7:7E:82:3D:AC:E0

            X509v3 Extended Key Usage: 
                TLS Web Client Authentication
            X509v3 Key Usage: 
                Digital Signature
    Signature Algorithm: sha256WithRSAEncryption
         77:4c:6e:99:91:8e:e4:4f:20:91:9c:bb:ab:0f:59:01:02:b8:
         b0:79:53:a4:86:f2:ae:9f:2f:bc:a8:34:14:72:44:7c:09:a6:
         bc:22:ea:76:ca:d8:27:a5:ad:4e:10:5a:8b:fc:76:d5:e8:48:
         01:12:f8:fb:e7:65:01:d6:df:e0:a7:56:53:be:98:d7:0c:d2:
         e6:df:62:df:46:c6:f8:4a:36:41:b3:9c:34:db:a0:5a:86:3c:
         60:0b:88:f6:ee:52:34:84:2b:e6:c5:03:28:7b:24:7b:36:0b:
         05:b2:f1:dd:65:85:fa:69:70:56:34:5d:4d:b6:f8:5b:cb:e2:
         09:1a:6a:29:2f:32:a5:85:22:ae:a4:b2:1f:6e:b0:15:04:0a:
         9d:5f:d4:58:27:8a:b0:88:4d:44:5b:25:cc:43:0c:78:56:b6:
         94:60:7a:dc:93:2a:e2:23:b5:6b:31:7f:b7:17:18:6c:11:a5:
         05:6f:78:f7:e2:24:42:3d:9f:6b:cf:be:91:2a:c3:cb:b1:f6:
         52:da:a3:8c:cd:19:a2:c3:a2:f2:e2:6f:20:7e:f8:e5:46:c2:
         c2:e7:5d:4a:1d:ac:95:2b:e6:57:72:7e:59:dd:a5:e1:50:6c:
         da:3e:71:8b:3b:10:a1:63:24:f6:bf:46:b9:c3:b6:d3:a5:55:
         bb:52:d0:a6
-----BEGIN CERTIFICATE-----
MIIDNDCCAhygAwIBAgIBAzANBgkqhkiG9w0BAQsFADASMRAwDgYDVQQDDAdmYWly
Lmx2MB4XDTE4MDUwNzIwNTMwM1oXDTI4MDUwNDIwNTMwM1owEzERMA8GA1UEAwwI
aW5zcGlyb24wggEiMA0GCSqGSIb3DQEBAQUAA4IBDwAwggEKAoIBAQDLtUYGQq6Z
P2KmFSLgzdlCkPvZN6aL1u5gP15tyLtQJPA3TICJR1NiT2XTsXayFU9JnbGYCTCO
R4tvbT+qdnb8uRLaV64QouBhjHK40gA0lBpWtMSVsCKk7MUDrBoD8PLah3KfM0CM
yvIaZhFjR6aNaVPqrGrIgMwO1n+xuPBIflidXJg8C/5Qxs0fUPeF2CTFsiw/SuRj
2VySODgokvPzU2cS/XxC45wrLvO3ycs0B0VzZTfmD9111kJ3HoYmMMS0NF33uS1r
7nOEepdbG3xRCB7xHoqda9evxO9tQKp5mqeXxsRpu55ObA8tCOYQjUIKalG/p1ZG
sxOABmz6nh8LAgMBAAGjgZMwgZAwCQYDVR0TBAIwADAdBgNVHQ4EFgQU7KgGJPvG
2v37wKCsEzbhEZEeNtUwQgYDVR0jBDswOYAUeShI4LBgsJwfAu0+kpVHFJLz3Ayh
FqQUMBIxEDAOBgNVBAMMB2ZhaXIubHaCCQDuK+d+gj2s4DATBgNVHSUEDDAKBggr
BgEFBQcDAjALBgNVHQ8EBAMCB4AwDQYJKoZIhvcNAQELBQADggEBAHdMbpmRjuRP
IJGcu6sPWQECuLB5U6SG8q6fL7yoNBRyRHwJprwi6nbK2CelrU4QWov8dtXoSAES
+PvnZQHW3+CnVlO+mNcM0ubfYt9GxvhKNkGznDTboFqGPGALiPbuUjSEK+bFAyh7
JHs2CwWy8d1lhfppcFY0XU22+FvL4gkaaikvMqWFIq6ksh9usBUECp1f1FgnirCI
TURbJcxDDHhWtpRgetyTKuIjtWsxf7cXGGwRpQVvePfiJEI9n2vPvpEqw8ux9lLa
o4zNGaLDovLibyB++OVGwsLnXUodrJUr5ldyflndpeFQbNo+cYs7EKFjJPa/RrnD
ttOlVbtS0KY=
-----END CERTIFICATE-----
