Certificate:
    Data:
        Version: 3 (0x2)
        Serial Number: 1 (0x1)
    Signature Algorithm: sha256WithRSAEncryption
        Issuer: CN=fair.lv
        Validity
            Not Before: May  7 16:33:53 2018 GMT
            Not After : May  4 16:33:53 2028 GMT
        Subject: CN=server
        Subject Public Key Info:
            Public Key Algorithm: rsaEncryption
                Public-Key: (2048 bit)
                Modulus:
                    00:e0:ef:20:e4:1b:04:71:37:bd:ac:7e:57:49:e4:
                    52:0a:bc:39:fc:29:c8:d6:30:52:14:f7:2b:10:73:
                    24:83:55:d3:f4:41:22:66:c6:c7:a2:be:e6:a3:a8:
                    6d:8a:cc:23:f0:bb:1f:64:89:02:32:fb:b3:ee:95:
                    9a:6a:dd:b0:bd:bf:65:bf:c1:27:87:f3:d2:ee:ad:
                    fc:2a:36:37:53:ba:93:4c:8d:e5:cf:e4:bb:12:27:
                    0b:92:8d:4f:2d:30:34:36:eb:16:d3:e1:77:61:da:
                    7a:8b:3f:61:0a:40:df:12:9b:d0:ac:e1:18:86:3b:
                    3c:e3:da:d4:e9:7f:94:71:e6:47:56:70:96:d7:9a:
                    25:00:30:83:fc:3a:34:fa:05:4e:30:b2:f1:7a:ed:
                    4d:95:40:74:97:63:73:7b:1e:87:45:c2:07:8d:a3:
                    89:71:e7:f6:7a:8d:bc:c7:27:1e:59:a7:f5:ba:cb:
                    f4:49:7c:56:d2:e1:7b:6c:f9:06:1c:99:78:04:a3:
                    4f:45:cc:05:11:99:d3:7e:b0:8a:f1:93:a0:e7:46:
                    2b:11:ef:38:f2:eb:ca:24:b4:cf:08:52:b8:4d:3d:
                    25:56:f9:c6:ea:2d:93:4f:eb:23:23:75:e1:76:a5:
                    92:5a:be:5b:d3:8c:5b:d2:67:47:2c:89:1a:93:11:
                    e0:b5
                Exponent: 65537 (0x10001)
        X509v3 extensions:
            X509v3 Basic Constraints: 
                CA:FALSE
            X509v3 Subject Key Identifier: 
                CB:0F:7B:52:2F:C9:CD:20:A1:C5:17:2E:DF:D9:98:17:D8:B5:78:46
            X509v3 Authority Key Identifier: 
                keyid:79:28:48:E0:B0:60:B0:9C:1F:02:ED:3E:92:95:47:14:92:F3:DC:0C
                DirName:/CN=fair.lv
                serial:EE:2B:E7:7E:82:3D:AC:E0

            X509v3 Extended Key Usage: 
                TLS Web Server Authentication
            X509v3 Key Usage: 
                Digital Signature, Key Encipherment
    Signature Algorithm: sha256WithRSAEncryption
         18:3b:56:56:2f:60:24:17:79:d0:e3:18:c6:87:39:94:1a:3d:
         41:9d:51:32:3b:cc:9d:63:59:ed:ff:1f:f8:71:ea:3f:26:97:
         35:20:0f:5d:cc:2f:1a:cb:40:3b:97:d2:cc:e0:68:f9:4e:e7:
         c0:c1:ce:ea:2c:97:f9:07:1a:b2:84:c8:93:dc:51:71:5a:74:
         ae:fe:dd:fe:38:de:f5:36:a9:f2:51:52:09:97:05:11:1d:b1:
         9b:58:87:64:92:08:14:48:49:32:96:a1:f5:0d:61:26:65:ed:
         9d:07:39:bb:69:49:b0:4c:0b:95:cc:0a:a9:85:2b:b9:c1:5d:
         c2:61:15:49:61:c7:45:87:97:d1:a0:77:ae:25:51:4e:73:76:
         4a:92:ea:08:ec:54:47:69:8c:76:2b:21:f0:f7:ef:47:c5:1c:
         66:1e:b7:a6:d9:7c:2e:05:49:dd:96:70:fd:5d:d9:da:12:77:
         1a:1e:dd:5b:ae:3a:c9:75:cf:d8:c5:79:0c:e4:da:38:49:10:
         0b:f9:ee:7d:f1:c1:93:16:3f:85:0d:88:0f:93:e1:f5:3b:5a:
         28:23:a8:0e:a6:bc:5f:72:64:25:78:67:35:b9:a9:54:21:8d:
         9f:da:b5:d6:97:07:40:f4:ca:20:d3:94:d3:30:3a:a3:0a:95:
         5a:36:3a:71
-----BEGIN CERTIFICATE-----
MIIDMjCCAhqgAwIBAgIBATANBgkqhkiG9w0BAQsFADASMRAwDgYDVQQDDAdmYWly
Lmx2MB4XDTE4MDUwNzE2MzM1M1oXDTI4MDUwNDE2MzM1M1owETEPMA0GA1UEAwwG
c2VydmVyMIIBIjANBgkqhkiG9w0BAQEFAAOCAQ8AMIIBCgKCAQEA4O8g5BsEcTe9
rH5XSeRSCrw5/CnI1jBSFPcrEHMkg1XT9EEiZsbHor7mo6htiswj8LsfZIkCMvuz
7pWaat2wvb9lv8Enh/PS7q38KjY3U7qTTI3lz+S7EicLko1PLTA0NusW0+F3Ydp6
iz9hCkDfEpvQrOEYhjs849rU6X+UceZHVnCW15olADCD/Do0+gVOMLLxeu1NlUB0
l2Nzex6HRcIHjaOJcef2eo28xyceWaf1usv0SXxW0uF7bPkGHJl4BKNPRcwFEZnT
frCK8ZOg50YrEe848uvKJLTPCFK4TT0lVvnG6i2TT+sjI3XhdqWSWr5b04xb0mdH
LIkakxHgtQIDAQABo4GTMIGQMAkGA1UdEwQCMAAwHQYDVR0OBBYEFMsPe1Ivyc0g
ocUXLt/ZmBfYtXhGMEIGA1UdIwQ7MDmAFHkoSOCwYLCcHwLtPpKVRxSS89wMoRak
FDASMRAwDgYDVQQDDAdmYWlyLmx2ggkA7ivnfoI9rOAwEwYDVR0lBAwwCgYIKwYB
BQUHAwEwCwYDVR0PBAQDAgWgMA0GCSqGSIb3DQEBCwUAA4IBAQAYO1ZWL2AkF3nQ
4xjGhzmUGj1BnVEyO8ydY1nt/x/4ceo/Jpc1IA9dzC8ay0A7l9LM4Gj5TufAwc7q
LJf5BxqyhMiT3FFxWnSu/t3+ON71NqnyUVIJlwURHbGbWIdkkggUSEkylqH1DWEm
Ze2dBzm7aUmwTAuVzAqphSu5wV3CYRVJYcdFh5fRoHeuJVFOc3ZKkuoI7FRHaYx2
KyHw9+9HxRxmHrem2XwuBUndlnD9XdnaEncaHt1brjrJdc/YxXkM5No4SRAL+e59
8cGTFj+FDYgPk+H1O1ooI6gOprxfcmQleGc1ualUIY2f2rXWlwdA9Mog05TTMDqj
CpVaNjpx
-----END CERTIFICATE-----
