Certificate:
    Data:
        Version: 3 (0x2)
        Serial Number: 2 (0x2)
    Signature Algorithm: sha256WithRSAEncryption
        Issuer: CN=fair.lv
        Validity
            Not Before: May  7 20:06:50 2018 GMT
            Not After : May  4 20:06:50 2028 GMT
        Subject: CN=acer
        Subject Public Key Info:
            Public Key Algorithm: rsaEncryption
                Public-Key: (2048 bit)
                Modulus:
                    00:ef:44:2b:86:bf:f9:46:2d:b3:ec:e1:49:1a:6c:
                    bd:82:b6:6a:16:e7:7b:97:f5:60:61:97:74:8b:15:
                    b7:42:39:71:7d:21:44:8e:36:cb:5d:be:97:69:18:
                    39:04:92:09:00:95:47:cb:41:4e:94:3e:40:03:be:
                    e1:28:b1:50:eb:c6:5d:16:99:06:22:c2:2e:39:b9:
                    a4:4a:92:ba:5c:1f:f1:5a:21:bf:68:ad:ae:a1:2f:
                    9b:db:03:fb:c2:3d:2e:83:1b:82:64:5d:e2:4b:2a:
                    d9:12:6c:46:40:45:42:34:e0:f2:5b:bc:ec:d3:7d:
                    b5:ab:81:54:fa:44:47:00:c9:7f:63:67:71:00:e7:
                    5b:80:1a:73:56:a5:45:6e:f4:8d:f7:81:70:a3:3f:
                    ba:bf:f4:98:1c:8c:c1:c2:53:e9:65:de:96:e1:91:
                    13:6c:22:11:bb:e5:7b:26:34:3c:fc:a6:84:6e:55:
                    31:d4:95:df:f1:fb:4e:4a:44:42:aa:44:71:2a:e1:
                    89:28:d6:df:e1:3b:42:4d:13:90:ab:2e:a5:72:dd:
                    3a:b1:cb:da:80:94:95:a4:89:49:cb:5a:bf:da:8c:
                    77:5f:52:cc:e4:17:d5:bb:61:86:1d:9b:9f:61:e9:
                    1d:94:12:44:66:90:2b:5e:3b:66:a8:d0:4c:84:e1:
                    fe:5b
                Exponent: 65537 (0x10001)
        X509v3 extensions:
            X509v3 Basic Constraints: 
                CA:FALSE
            X509v3 Subject Key Identifier: 
                C8:2A:D9:5C:61:2B:9A:16:37:A2:8D:60:34:2B:43:72:79:6B:C0:AB
            X509v3 Authority Key Identifier: 
                keyid:79:28:48:E0:B0:60:B0:9C:1F:02:ED:3E:92:95:47:14:92:F3:DC:0C
                DirName:/CN=fair.lv
                serial:EE:2B:E7:7E:82:3D:AC:E0

            X509v3 Extended Key Usage: 
                TLS Web Client Authentication
            X509v3 Key Usage: 
                Digital Signature
    Signature Algorithm: sha256WithRSAEncryption
         2a:9b:f0:dc:af:32:30:31:f7:c1:f3:eb:39:26:38:75:de:9c:
         1c:c0:b1:ce:1c:cb:a1:e3:fd:92:6b:76:f1:b4:b0:e4:7e:31:
         3f:43:d5:3b:24:ae:b2:dd:6d:03:04:cd:c2:99:00:89:f4:fb:
         fe:68:6a:1b:ee:2d:76:e0:02:7f:4a:5b:30:3e:a3:cd:60:f4:
         f9:7b:95:0e:8b:ec:a6:4d:ed:97:87:77:97:fa:22:65:44:80:
         da:d4:f8:8f:9e:b0:a6:25:78:7f:ad:e9:d2:e0:20:30:d8:85:
         89:6d:34:fb:d5:1c:5e:33:21:60:da:b8:72:4e:c1:32:3f:c1:
         98:53:d9:39:81:ba:c4:d4:36:3c:9a:80:bf:ee:44:25:7c:8f:
         68:2e:9d:ac:15:68:04:60:ac:8c:a3:37:3f:33:a2:b3:d7:20:
         c6:e4:66:dc:07:cf:dd:27:a7:84:e3:eb:07:a6:79:93:1d:0c:
         d0:da:87:58:ef:5d:8b:9e:de:e3:be:77:e0:a1:d6:95:ce:5d:
         97:1f:b6:f5:19:55:f2:8f:71:95:4c:81:1e:45:45:16:c6:fe:
         6a:81:0d:35:1e:7d:d9:53:a3:88:9d:37:b2:97:ca:6a:fc:84:
         c3:be:eb:74:07:13:d0:0a:25:e1:95:a7:c9:21:ed:f3:17:c6:
         03:8d:06:c0
-----BEGIN CERTIFICATE-----
MIIDMDCCAhigAwIBAgIBAjANBgkqhkiG9w0BAQsFADASMRAwDgYDVQQDDAdmYWly
Lmx2MB4XDTE4MDUwNzIwMDY1MFoXDTI4MDUwNDIwMDY1MFowDzENMAsGA1UEAwwE
YWNlcjCCASIwDQYJKoZIhvcNAQEBBQADggEPADCCAQoCggEBAO9EK4a/+UYts+zh
SRpsvYK2ahbne5f1YGGXdIsVt0I5cX0hRI42y12+l2kYOQSSCQCVR8tBTpQ+QAO+
4SixUOvGXRaZBiLCLjm5pEqSulwf8Vohv2itrqEvm9sD+8I9LoMbgmRd4ksq2RJs
RkBFQjTg8lu87NN9tauBVPpERwDJf2NncQDnW4Aac1alRW70jfeBcKM/ur/0mByM
wcJT6WXeluGRE2wiEbvleyY0PPymhG5VMdSV3/H7TkpEQqpEcSrhiSjW3+E7Qk0T
kKsupXLdOrHL2oCUlaSJSctav9qMd19SzOQX1bthhh2bn2HpHZQSRGaQK147ZqjQ
TITh/lsCAwEAAaOBkzCBkDAJBgNVHRMEAjAAMB0GA1UdDgQWBBTIKtlcYSuaFjei
jWA0K0NyeWvAqzBCBgNVHSMEOzA5gBR5KEjgsGCwnB8C7T6SlUcUkvPcDKEWpBQw
EjEQMA4GA1UEAwwHZmFpci5sdoIJAO4r536CPazgMBMGA1UdJQQMMAoGCCsGAQUF
BwMCMAsGA1UdDwQEAwIHgDANBgkqhkiG9w0BAQsFAAOCAQEAKpvw3K8yMDH3wfPr
OSY4dd6cHMCxzhzLoeP9kmt28bSw5H4xP0PVOySust1tAwTNwpkAifT7/mhqG+4t
duACf0pbMD6jzWD0+XuVDovspk3tl4d3l/oiZUSA2tT4j56wpiV4f63p0uAgMNiF
iW00+9UcXjMhYNq4ck7BMj/BmFPZOYG6xNQ2PJqAv+5EJXyPaC6drBVoBGCsjKM3
PzOis9cgxuRm3AfP3SenhOPrB6Z5kx0M0NqHWO9di57e47534KHWlc5dlx+29RlV
8o9xlUyBHkVFFsb+aoENNR592VOjiJ03spfKavyEw77rdAcT0Aol4ZWnySHt8xfG
A40GwA==
-----END CERTIFICATE-----
